target datalayout = "e-m:e-p270:32:32-p271:32:32-p272:64:64-i64:64-i128:128-f80:128-n8:16:32:64-S128"
target triple = "x86_64-unknown-linux-gnu"

%"class.Assimp::Ogre::OgreBinarySerializer" = type <{ i32, [4 x i8], ptr, i32, [4 x i8] }>
%"class.Assimp::StreamReader" = type <{ %"class.std::shared_ptr", ptr, ptr, ptr, ptr, i8, [7 x i8] }>
%"class.std::shared_ptr" = type { %"class.std::__shared_ptr" }
%"class.std::__shared_ptr" = type { ptr, %"class.std::__shared_count" }
%"class.std::__shared_count" = type { ptr }
%"class.Assimp::Ogre::IVertexData" = type { i32, %"class.std::vector.22", %"class.std::map", %"class.std::map.30" }
%"class.std::vector.22" = type { %"struct.std::_Vector_base.23" }
%"struct.std::_Vector_base.23" = type { %"struct.std::_Vector_base<Assimp::Ogre::VertexBoneAssignment, std::allocator<Assimp::Ogre::VertexBoneAssignment>>::_Vector_impl" }
%"struct.std::_Vector_base<Assimp::Ogre::VertexBoneAssignment, std::allocator<Assimp::Ogre::VertexBoneAssignment>>::_Vector_impl" = type { %"struct.std::_Vector_base<Assimp::Ogre::VertexBoneAssignment, std::allocator<Assimp::Ogre::VertexBoneAssignment>>::_Vector_impl_data" }
%"struct.std::_Vector_base<Assimp::Ogre::VertexBoneAssignment, std::allocator<Assimp::Ogre::VertexBoneAssignment>>::_Vector_impl_data" = type { ptr, ptr, ptr }
%"class.std::map" = type { %"class.std::_Rb_tree" }
%"class.std::_Rb_tree" = type { %"struct.std::_Rb_tree<unsigned int, std::pair<const unsigned int, std::vector<unsigned int>>, std::_Select1st<std::pair<const unsigned int, std::vector<unsigned int>>>, std::less<unsigned int>>::_Rb_tree_impl" }
%"struct.std::_Rb_tree<unsigned int, std::pair<const unsigned int, std::vector<unsigned int>>, std::_Select1st<std::pair<const unsigned int, std::vector<unsigned int>>>, std::less<unsigned int>>::_Rb_tree_impl" = type { %"struct.std::_Rb_tree_key_compare", %"struct.std::_Rb_tree_header" }
%"struct.std::_Rb_tree_key_compare" = type { %"struct.std::less" }
%"struct.std::less" = type { i8 }
%"struct.std::_Rb_tree_header" = type { %"struct.std::_Rb_tree_node_base", i64 }
%"struct.std::_Rb_tree_node_base" = type { i32, ptr, ptr, ptr }
%"class.std::map.30" = type { %"class.std::_Rb_tree.31" }
%"class.std::_Rb_tree.31" = type { %"struct.std::_Rb_tree<unsigned int, std::pair<const unsigned int, std::vector<Assimp::Ogre::VertexBoneAssignment>>, std::_Select1st<std::pair<const unsigned int, std::vector<Assimp::Ogre::VertexBoneAssignment>>>, std::less<unsigned int>>::_Rb_tree_impl" }
%"struct.std::_Rb_tree<unsigned int, std::pair<const unsigned int, std::vector<Assimp::Ogre::VertexBoneAssignment>>, std::_Select1st<std::pair<const unsigned int, std::vector<Assimp::Ogre::VertexBoneAssignment>>>, std::less<unsigned int>>::_Rb_tree_impl" = type { %"struct.std::_Rb_tree_key_compare", %"struct.std::_Rb_tree_header" }
%"struct.Assimp::Intern::Getter.106" = type { i8 }
%"struct.Assimp::Intern::ByteSwapper.107" = type { i8 }

@_ZTI17DeadlyImportError = linkonce_odr constant { ptr, ptr, ptr } { ptr getelementptr inbounds (ptr, ptr @_ZTVN10__cxxabiv120__si_class_type_infoE, i64 2), ptr @_ZTS17DeadlyImportError, ptr @_ZTI15DeadlyErrorBase }, comdat, align 8
@.str.28 = private unnamed_addr constant [25 x i8] c"  - Reading geometry of \00", align 1
@.str.29 = private unnamed_addr constant [10 x i8] c" vertices\00", align 1
@.str.66 = private unnamed_addr constant [40 x i8] c"End of file or stream limit was reached\00", align 1
@.str.68 = private unnamed_addr constant [38 x i8] c"End of file or read limit was reached\00", align 1

; Function Attrs: mustprogress nounwind uwtable
define linkonce_odr hidden void @_ZN6Assimp6Intern11ByteSwapperIjLb0EEclEPj(ptr noundef nonnull align 1 dereferenceable(1) %this, ptr noundef %0) #0 comdat align 2 {
entry:
  %this.addr = alloca ptr, align 8
  %.addr = alloca ptr, align 8
  store ptr %this, ptr %this.addr, align 8
  store ptr %0, ptr %.addr, align 8
  ret void
}

; Function Attrs: mustprogress uwtable
define linkonce_odr hidden void @_ZN6Assimp6Intern6GetterILb0EjLb0EEclEPjb(ptr noundef nonnull align 1 dereferenceable(1) %this, ptr noundef %inout, i1 noundef zeroext %0) #2 comdat align 2 {
entry:
  %this.addr = alloca ptr, align 8
  %inout.addr = alloca ptr, align 8
  %.addr = alloca i8, align 1
  %ref.tmp = alloca %"struct.Assimp::Intern::ByteSwapper.107", align 1
  store ptr %this, ptr %this.addr, align 8
  store ptr %inout, ptr %inout.addr, align 8
  %frombool = zext i1 %0 to i8
  store i8 %frombool, ptr %.addr, align 1
  %1 = load ptr, ptr %inout.addr, align 8
  call void @_ZN6Assimp6Intern11ByteSwapperIjLb0EEclEPj(ptr noundef nonnull align 1 dereferenceable(1) %ref.tmp, ptr noundef %1)
  ret void
}

; Function Attrs: mustprogress uwtable
define linkonce_odr hidden noundef i32 @_ZN6Assimp12StreamReaderILb0ELb0EE3GetIjEET_v(ptr noundef nonnull align 8 dereferenceable(49) %this) #2 comdat align 2 personality ptr @__gxx_personality_v0 {
entry:
  %this.addr = alloca ptr, align 8
  %exn.slot = alloca ptr, align 8
  %ehselector.slot = alloca i32, align 4
  %f = alloca i32, align 4
  %ref.tmp = alloca %"struct.Assimp::Intern::Getter.106", align 1
  store ptr %this, ptr %this.addr, align 8
  %this1 = load ptr, ptr %this.addr, align 8
  %mCurrent = getelementptr inbounds %"class.Assimp::StreamReader", ptr %this1, i32 0, i32 2
  %0 = load ptr, ptr %mCurrent, align 8
  %add.ptr = getelementptr inbounds i8, ptr %0, i64 4
  %mLimit = getelementptr inbounds %"class.Assimp::StreamReader", ptr %this1, i32 0, i32 4
  %1 = load ptr, ptr %mLimit, align 8
  %cmp = icmp ugt ptr %add.ptr, %1
  br i1 %cmp, label %if.then, label %if.end

if.then:                                          ; preds = %entry
  %exception = call ptr @__cxa_allocate_exception(i64 16) #5
  invoke void @_ZN17DeadlyImportErrorC2EPKc(ptr noundef nonnull align 8 dereferenceable(16) %exception, ptr noundef @.str.66)
          to label %invoke.cont unwind label %lpad

invoke.cont:                                      ; preds = %if.then
  call void @__cxa_throw(ptr %exception, ptr @_ZTI17DeadlyImportError, ptr @_ZN17DeadlyImportErrorD2Ev) #16
  unreachable

lpad:                                             ; preds = %if.then
  %2 = landingpad { ptr, i32 }
          cleanup
  %3 = extractvalue { ptr, i32 } %2, 0
  store ptr %3, ptr %exn.slot, align 8
  %4 = extractvalue { ptr, i32 } %2, 1
  store i32 %4, ptr %ehselector.slot, align 4
  call void @__cxa_free_exception(ptr %exception) #5
  br label %eh.resume

if.end:                                           ; preds = %entry
  %mCurrent2 = getelementptr inbounds %"class.Assimp::StreamReader", ptr %this1, i32 0, i32 2
  %5 = load ptr, ptr %mCurrent2, align 8
  call void @llvm.memcpy.p0.p0.i64(ptr align 4 %f, ptr align 1 %5, i64 4, i1 false)
  %mLe = getelementptr inbounds %"class.Assimp::StreamReader", ptr %this1, i32 0, i32 5
  %6 = load i8, ptr %mLe, align 8
  %tobool = trunc i8 %6 to i1
  call void @_ZN6Assimp6Intern6GetterILb0EjLb0EEclEPjb(ptr noundef nonnull align 1 dereferenceable(1) %ref.tmp, ptr noundef %f, i1 noundef zeroext %tobool)
  %mCurrent3 = getelementptr inbounds %"class.Assimp::StreamReader", ptr %this1, i32 0, i32 2
  %7 = load ptr, ptr %mCurrent3, align 8
  %add.ptr4 = getelementptr inbounds i8, ptr %7, i64 4
  store ptr %add.ptr4, ptr %mCurrent3, align 8
  %8 = load i32, ptr %f, align 4
  ret i32 %8

eh.resume:                                        ; preds = %lpad
  %exn = load ptr, ptr %exn.slot, align 8
  %sel = load i32, ptr %ehselector.slot, align 4
  %lpad.val = insertvalue { ptr, i32 } poison, ptr %exn, 0
  %lpad.val5 = insertvalue { ptr, i32 } %lpad.val, i32 %sel, 1
  resume { ptr, i32 } %lpad.val5
}

; Function Attrs: mustprogress uwtable
define linkonce_odr hidden void @_ZN6Assimp12StreamReaderILb0ELb0EE6IncPtrEl(ptr noundef nonnull align 8 dereferenceable(49) %this, i64 noundef %plus) #2 comdat align 2 personality ptr @__gxx_personality_v0 {
entry:
  %this.addr = alloca ptr, align 8
  %plus.addr = alloca i64, align 8
  %exn.slot = alloca ptr, align 8
  %ehselector.slot = alloca i32, align 4
  store ptr %this, ptr %this.addr, align 8
  store i64 %plus, ptr %plus.addr, align 8
  %this1 = load ptr, ptr %this.addr, align 8
  %0 = load i64, ptr %plus.addr, align 8
  %mCurrent = getelementptr inbounds %"class.Assimp::StreamReader", ptr %this1, i32 0, i32 2
  %1 = load ptr, ptr %mCurrent, align 8
  %add.ptr = getelementptr inbounds i8, ptr %1, i64 %0
  store ptr %add.ptr, ptr %mCurrent, align 8
  %mCurrent2 = getelementptr inbounds %"class.Assimp::StreamReader", ptr %this1, i32 0, i32 2
  %2 = load ptr, ptr %mCurrent2, align 8
  %mLimit = getelementptr inbounds %"class.Assimp::StreamReader", ptr %this1, i32 0, i32 4
  %3 = load ptr, ptr %mLimit, align 8
  %cmp = icmp ugt ptr %2, %3
  br i1 %cmp, label %if.then, label %if.end

if.then:                                          ; preds = %entry
  %exception = call ptr @__cxa_allocate_exception(i64 16) #5
  invoke void @_ZN17DeadlyImportErrorC2EPKc(ptr noundef nonnull align 8 dereferenceable(16) %exception, ptr noundef @.str.68)
          to label %invoke.cont unwind label %lpad

invoke.cont:                                      ; preds = %if.then
  call void @__cxa_throw(ptr %exception, ptr @_ZTI17DeadlyImportError, ptr @_ZN17DeadlyImportErrorD2Ev) #16
  unreachable

lpad:                                             ; preds = %if.then
  %4 = landingpad { ptr, i32 }
          cleanup
  %5 = extractvalue { ptr, i32 } %4, 0
  store ptr %5, ptr %exn.slot, align 8
  %6 = extractvalue { ptr, i32 } %4, 1
  store i32 %6, ptr %ehselector.slot, align 4
  call void @__cxa_free_exception(ptr %exception) #5
  br label %eh.resume

if.end:                                           ; preds = %entry
  ret void

eh.resume:                                        ; preds = %lpad
  %exn = load ptr, ptr %exn.slot, align 8
  %sel = load i32, ptr %ehselector.slot, align 4
  %lpad.val = insertvalue { ptr, i32 } poison, ptr %exn, 0
  %lpad.val3 = insertvalue { ptr, i32 } %lpad.val, i32 %sel, 1
  resume { ptr, i32 } %lpad.val3
}

; Function Attrs: mustprogress nounwind uwtable
define linkonce_odr hidden noundef i64 @_ZNK6Assimp12StreamReaderILb0ELb0EE16GetRemainingSizeEv(ptr noundef nonnull align 8 dereferenceable(49) %this) #0 comdat align 2 {
entry:
  %this.addr = alloca ptr, align 8
  store ptr %this, ptr %this.addr, align 8
  %this1 = load ptr, ptr %this.addr, align 8
  %mEnd = getelementptr inbounds %"class.Assimp::StreamReader", ptr %this1, i32 0, i32 3
  %0 = load ptr, ptr %mEnd, align 8
  %mCurrent = getelementptr inbounds %"class.Assimp::StreamReader", ptr %this1, i32 0, i32 2
  %1 = load ptr, ptr %mCurrent, align 8
  %sub.ptr.lhs.cast = ptrtoint ptr %0 to i64
  %sub.ptr.rhs.cast = ptrtoint ptr %1 to i64
  %sub.ptr.sub = sub i64 %sub.ptr.lhs.cast, %sub.ptr.rhs.cast
  %conv = trunc i64 %sub.ptr.sub to i32
  %conv2 = zext i32 %conv to i64
  ret i64 %conv2
}

; Function Attrs: mustprogress uwtable
define linkonce_odr hidden noundef i32 @_ZN6Assimp12StreamReaderILb0ELb0EE5GetU4Ev(ptr noundef nonnull align 8 dereferenceable(49) %this) #2 comdat align 2 {
entry:
  %this.addr = alloca ptr, align 8
  store ptr %this, ptr %this.addr, align 8
  %this1 = load ptr, ptr %this.addr, align 8
  %call = call noundef i32 @_ZN6Assimp12StreamReaderILb0ELb0EE3GetIjEET_v(ptr noundef nonnull align 8 dereferenceable(49) %this1)
  ret i32 %call
}

; Function Attrs: mustprogress uwtable
define hidden void @_ZN6Assimp4Ogre20OgreBinarySerializer14RollbackHeaderEv(ptr noundef nonnull align 8 dereferenceable(20) %this) #2 align 2 {
entry:
  %this.addr = alloca ptr, align 8
  store ptr %this, ptr %this.addr, align 8
  %this1 = load ptr, ptr %this.addr, align 8
  %m_reader = getelementptr inbounds %"class.Assimp::Ogre::OgreBinarySerializer", ptr %this1, i32 0, i32 2
  %0 = load ptr, ptr %m_reader, align 8
  call void @_ZN6Assimp12StreamReaderILb0ELb0EE6IncPtrEl(ptr noundef nonnull align 8 dereferenceable(49) %0, i64 noundef -6)
  ret void
}

; Function Attrs: mustprogress uwtable
define hidden noundef zeroext i1 @_ZNK6Assimp4Ogre20OgreBinarySerializer5AtEndEv(ptr noundef nonnull align 8 dereferenceable(20) %this) #2 align 2 {
entry:
  %this.addr = alloca ptr, align 8
  store ptr %this, ptr %this.addr, align 8
  %this1 = load ptr, ptr %this.addr, align 8
  %m_reader = getelementptr inbounds %"class.Assimp::Ogre::OgreBinarySerializer", ptr %this1, i32 0, i32 2
  %0 = load ptr, ptr %m_reader, align 8
  %call = call noundef i64 @_ZNK6Assimp12StreamReaderILb0ELb0EE16GetRemainingSizeEv(ptr noundef nonnull align 8 dereferenceable(49) %0)
  %cmp = icmp eq i64 %call, 0
  ret i1 %cmp
}

; Function Attrs: mustprogress uwtable
define linkonce_odr hidden noundef i32 @_ZN6Assimp4Ogre20OgreBinarySerializer4ReadIjEET_v(ptr noundef nonnull align 8 dereferenceable(20) %this) #2 comdat align 2 {
entry:
  %this.addr = alloca ptr, align 8
  store ptr %this, ptr %this.addr, align 8
  %this1 = load ptr, ptr %this.addr, align 8
  %m_reader = getelementptr inbounds %"class.Assimp::Ogre::OgreBinarySerializer", ptr %this1, i32 0, i32 2
  %0 = load ptr, ptr %m_reader, align 8
  %call = call noundef i32 @_ZN6Assimp12StreamReaderILb0ELb0EE5GetU4Ev(ptr noundef nonnull align 8 dereferenceable(49) %0)
  ret i32 %call
}

; Function Attrs: mustprogress uwtable
define hidden void @_ZN6Assimp4Ogre20OgreBinarySerializer12ReadGeometryEPNS0_10VertexDataE(ptr noundef nonnull align 8 dereferenceable(20) %this, ptr noundef %dest) #2 align 2 {
entry:
  %this.addr = alloca ptr, align 8
  %dest.addr = alloca ptr, align 8
  %id = alloca i16, align 2
  store ptr %this, ptr %this.addr, align 8
  store ptr %dest, ptr %dest.addr, align 8
  %this1 = load ptr, ptr %this.addr, align 8
  %call = call noundef i32 @_ZN6Assimp4Ogre20OgreBinarySerializer4ReadIjEET_v(ptr noundef nonnull align 8 dereferenceable(20) %this1)
  %0 = load ptr, ptr %dest.addr, align 8
  %count = getelementptr inbounds %"class.Assimp::Ogre::IVertexData", ptr %0, i32 0, i32 0
  store i32 %call, ptr %count, align 8
  %call2 = call noundef ptr @_ZN6Assimp13DefaultLogger3getEv()
  %1 = load ptr, ptr %dest.addr, align 8
  %count3 = getelementptr inbounds %"class.Assimp::Ogre::IVertexData", ptr %1, i32 0, i32 0
  call void @_ZN6Assimp6Logger12verboseDebugIJRA25_KcRjRA10_S2_EEEvDpOT_(ptr noundef nonnull align 8 dereferenceable(12) %call2, ptr noundef nonnull align 1 dereferenceable(25) @.str.28, ptr noundef nonnull align 4 dereferenceable(4) %count3, ptr noundef nonnull align 1 dereferenceable(10) @.str.29)
  %call4 = call noundef zeroext i1 @_ZNK6Assimp4Ogre20OgreBinarySerializer5AtEndEv(ptr noundef nonnull align 8 dereferenceable(20) %this1)
  br i1 %call4, label %if.end17, label %if.then

if.then:                                          ; preds = %entry
  %call5 = call noundef zeroext i16 @_ZN6Assimp4Ogre20OgreBinarySerializer10ReadHeaderEb(ptr noundef nonnull align 8 dereferenceable(20) %this1, i1 noundef zeroext true)
  store i16 %call5, ptr %id, align 2
  br label %while.cond

while.cond:                                       ; preds = %if.end, %if.then
  %call6 = call noundef zeroext i1 @_ZNK6Assimp4Ogre20OgreBinarySerializer5AtEndEv(ptr noundef nonnull align 8 dereferenceable(20) %this1)
  br i1 %call6, label %land.end, label %land.rhs

land.rhs:                                         ; preds = %while.cond
  %2 = load i16, ptr %id, align 2
  %conv = zext i16 %2 to i32
  %cmp = icmp eq i32 %conv, 20736
  br i1 %cmp, label %lor.end, label %lor.rhs

lor.rhs:                                          ; preds = %land.rhs
  %3 = load i16, ptr %id, align 2
  %conv7 = zext i16 %3 to i32
  %cmp8 = icmp eq i32 %conv7, 20992
  br label %lor.end

lor.end:                                          ; preds = %lor.rhs, %land.rhs
  %4 = phi i1 [ true, %land.rhs ], [ %cmp8, %lor.rhs ]
  br label %land.end

land.end:                                         ; preds = %lor.end, %while.cond
  %5 = phi i1 [ false, %while.cond ], [ %4, %lor.end ]
  br i1 %5, label %while.body, label %while.end

while.body:                                       ; preds = %land.end
  %6 = load i16, ptr %id, align 2
  %conv9 = zext i16 %6 to i32
  switch i32 %conv9, label %sw.epilog [
    i32 20736, label %sw.bb
    i32 20992, label %sw.bb10
  ]

sw.bb:                                            ; preds = %while.body
  %7 = load ptr, ptr %dest.addr, align 8
  call void @_ZN6Assimp4Ogre20OgreBinarySerializer29ReadGeometryVertexDeclarationEPNS0_10VertexDataE(ptr noundef nonnull align 8 dereferenceable(20) %this1, ptr noundef %7)
  br label %sw.epilog

sw.bb10:                                          ; preds = %while.body
  %8 = load ptr, ptr %dest.addr, align 8
  call void @_ZN6Assimp4Ogre20OgreBinarySerializer24ReadGeometryVertexBufferEPNS0_10VertexDataE(ptr noundef nonnull align 8 dereferenceable(20) %this1, ptr noundef %8)
  br label %sw.epilog

sw.epilog:                                        ; preds = %sw.bb10, %sw.bb, %while.body
  %call11 = call noundef zeroext i1 @_ZNK6Assimp4Ogre20OgreBinarySerializer5AtEndEv(ptr noundef nonnull align 8 dereferenceable(20) %this1)
  br i1 %call11, label %if.end, label %if.then12

if.then12:                                        ; preds = %sw.epilog
  %call13 = call noundef zeroext i16 @_ZN6Assimp4Ogre20OgreBinarySerializer10ReadHeaderEb(ptr noundef nonnull align 8 dereferenceable(20) %this1, i1 noundef zeroext true)
  store i16 %call13, ptr %id, align 2
  br label %if.end

if.end:                                           ; preds = %if.then12, %sw.epilog
  br label %while.cond, !llvm.loop !8

while.end:                                        ; preds = %land.end
  %call14 = call noundef zeroext i1 @_ZNK6Assimp4Ogre20OgreBinarySerializer5AtEndEv(ptr noundef nonnull align 8 dereferenceable(20) %this1)
  br i1 %call14, label %if.end16, label %if.then15

if.then15:                                        ; preds = %while.end
  call void @_ZN6Assimp4Ogre20OgreBinarySerializer14RollbackHeaderEv(ptr noundef nonnull align 8 dereferenceable(20) %this1)
  br label %if.end16

if.end16:                                         ; preds = %if.then15, %while.end
  br label %if.end17

if.end17:                                         ; preds = %if.end16, %entry
  ret void
}