; Function Attrs: mustprogress uwtable
define hidden void @_ZN6Assimp4Ogre20OgreBinarySerializer12ReadGeometryEPNS0_10VertexDataE(ptr nocapture noundef nonnull align 8 dereferenceable(20) %this, ptr noundef %dest) local_unnamed_addr #2 align 2 personality ptr @__gxx_personality_v0 {
entry:
  %m_reader.i = getelementptr inbounds i8, ptr %this, i64 8
  %0 = load ptr, ptr %m_reader.i, align 8
  %mCurrent.i.i.i = getelementptr inbounds i8, ptr %0, i64 24
  %1 = load ptr, ptr %mCurrent.i.i.i, align 8
  %add.ptr.i.i.i = getelementptr inbounds i8, ptr %1, i64 4
  %mLimit.i.i.i = getelementptr inbounds i8, ptr %0, i64 40
  %2 = load ptr, ptr %mLimit.i.i.i, align 8
  %cmp.i.i.i = icmp ugt ptr %add.ptr.i.i.i, %2
  br i1 %cmp.i.i.i, label %if.then.i.i.i, label %_ZN6Assimp4Ogre20OgreBinarySerializer4ReadIjEET_v.exit

if.then.i.i.i:                                    ; preds = %entry
  %exception.i.i.i = tail call ptr @__cxa_allocate_exception(i64 16) #19
  invoke void @_ZN17DeadlyImportErrorC2EPKc(ptr noundef nonnull align 8 dereferenceable(16) %exception.i.i.i, ptr noundef nonnull @.str.66)
          to label %invoke.cont.i.i.i unwind label %lpad.i.i.i

invoke.cont.i.i.i:                                ; preds = %if.then.i.i.i
  tail call void @__cxa_throw(ptr nonnull %exception.i.i.i, ptr nonnull @_ZTI17DeadlyImportError, ptr nonnull @_ZN17DeadlyImportErrorD2Ev) #20
  unreachable

common.resume:                                    ; preds = %lpad.i.i, %lpad.i.i.i
  %exception.i.i.sink = phi ptr [ %exception.i.i, %lpad.i.i ], [ %exception.i.i.i, %lpad.i.i.i ]
  %common.resume.op = phi { ptr, i32 } [ %19, %lpad.i.i ], [ %3, %lpad.i.i.i ]
  tail call void @__cxa_free_exception(ptr %exception.i.i.sink) #19
  resume { ptr, i32 } %common.resume.op

lpad.i.i.i:                                       ; preds = %if.then.i.i.i
  %3 = landingpad { ptr, i32 }
          cleanup
  br label %common.resume

_ZN6Assimp4Ogre20OgreBinarySerializer4ReadIjEET_v.exit: ; preds = %entry
  %4 = load i32, ptr %1, align 1
  store ptr %add.ptr.i.i.i, ptr %mCurrent.i.i.i, align 8
  store i32 %4, ptr %dest, align 8
  %call2 = tail call noundef ptr @_ZN6Assimp13DefaultLogger3getEv()
  tail call void @_ZN6Assimp6Logger12verboseDebugIJRA25_KcRjRA10_S2_EEEvDpOT_(ptr noundef nonnull align 8 dereferenceable(12) %call2, ptr noundef nonnull align 1 dereferenceable(25) @.str.28, ptr noundef nonnull align 4 dereferenceable(4) %dest, ptr noundef nonnull align 1 dereferenceable(10) @.str.29)
  %5 = load ptr, ptr %m_reader.i, align 8
  %mEnd.i.i = getelementptr inbounds i8, ptr %5, i64 32
  %6 = load ptr, ptr %mEnd.i.i, align 8
  %mCurrent.i.i = getelementptr inbounds i8, ptr %5, i64 24
  %7 = load ptr, ptr %mCurrent.i.i, align 8
  %sub.ptr.lhs.cast.i.i = ptrtoint ptr %6 to i64
  %sub.ptr.rhs.cast.i.i = ptrtoint ptr %7 to i64
  %sub.ptr.sub.i.i = sub i64 %sub.ptr.lhs.cast.i.i, %sub.ptr.rhs.cast.i.i
  %conv2.i.i = and i64 %sub.ptr.sub.i.i, 4294967295
  %cmp.i = icmp eq i64 %conv2.i.i, 0
  br i1 %cmp.i, label %if.end17, label %if.then

if.then:                                          ; preds = %_ZN6Assimp4Ogre20OgreBinarySerializer4ReadIjEET_v.exit
  %call5 = tail call noundef zeroext i16 @_ZN6Assimp4Ogre20OgreBinarySerializer10ReadHeaderEb(ptr noundef nonnull align 8 dereferenceable(20) %this, i1 noundef zeroext true)
  %8 = load ptr, ptr %m_reader.i, align 8
  %mEnd.i.i837 = getelementptr inbounds i8, ptr %8, i64 32
  %9 = load ptr, ptr %mEnd.i.i837, align 8
  %mCurrent.i.i938 = getelementptr inbounds i8, ptr %8, i64 24
  %10 = load ptr, ptr %mCurrent.i.i938, align 8
  %sub.ptr.lhs.cast.i.i1039 = ptrtoint ptr %9 to i64
  %sub.ptr.rhs.cast.i.i1140 = ptrtoint ptr %10 to i64
  %sub.ptr.sub.i.i1241 = sub i64 %sub.ptr.lhs.cast.i.i1039, %sub.ptr.rhs.cast.i.i1140
  %conv2.i.i1342 = and i64 %sub.ptr.sub.i.i1241, 4294967295
  %cmp.i1443 = icmp eq i64 %conv2.i.i1342, 0
  br i1 %cmp.i1443, label %if.end17, label %land.rhs

land.rhs:                                         ; preds = %if.then, %if.end
  %11 = phi ptr [ %16, %if.end ], [ %10, %if.then ]
  %12 = phi ptr [ %17, %if.end ], [ %8, %if.then ]
  %id.044 = phi i16 [ %id.1, %if.end ], [ %call5, %if.then ]
  switch i16 %id.044, label %if.then15 [
    i16 20736, label %sw.bb
    i16 20992, label %sw.bb10
  ]

sw.bb:                                            ; preds = %land.rhs
  tail call void @_ZN6Assimp4Ogre20OgreBinarySerializer29ReadGeometryVertexDeclarationEPNS0_10VertexDataE(ptr noundef nonnull align 8 dereferenceable(20) %this, ptr noundef nonnull %dest)
  br label %sw.epilog

sw.bb10:                                          ; preds = %land.rhs
  tail call void @_ZN6Assimp4Ogre20OgreBinarySerializer24ReadGeometryVertexBufferEPNS0_10VertexDataE(ptr noundef nonnull align 8 dereferenceable(20) %this, ptr noundef nonnull %dest)
  br label %sw.epilog

sw.epilog:                                        ; preds = %sw.bb10, %sw.bb
  %13 = load ptr, ptr %m_reader.i, align 8
  %mEnd.i.i16 = getelementptr inbounds i8, ptr %13, i64 32
  %14 = load ptr, ptr %mEnd.i.i16, align 8
  %mCurrent.i.i17 = getelementptr inbounds i8, ptr %13, i64 24
  %15 = load ptr, ptr %mCurrent.i.i17, align 8
  %sub.ptr.lhs.cast.i.i18 = ptrtoint ptr %14 to i64
  %sub.ptr.rhs.cast.i.i19 = ptrtoint ptr %15 to i64
  %sub.ptr.sub.i.i20 = sub i64 %sub.ptr.lhs.cast.i.i18, %sub.ptr.rhs.cast.i.i19
  %conv2.i.i21 = and i64 %sub.ptr.sub.i.i20, 4294967295
  %cmp.i22 = icmp eq i64 %conv2.i.i21, 0
  br i1 %cmp.i22, label %if.end, label %if.then12

if.then12:                                        ; preds = %sw.epilog
  %call13 = tail call noundef zeroext i16 @_ZN6Assimp4Ogre20OgreBinarySerializer10ReadHeaderEb(ptr noundef nonnull align 8 dereferenceable(20) %this, i1 noundef zeroext true)
  %.pre = load ptr, ptr %m_reader.i, align 8
  %mEnd.i.i8.phi.trans.insert = getelementptr inbounds i8, ptr %.pre, i64 32
  %.pre48 = load ptr, ptr %mEnd.i.i8.phi.trans.insert, align 8
  %mCurrent.i.i9.phi.trans.insert = getelementptr inbounds i8, ptr %.pre, i64 24
  %.pre49 = load ptr, ptr %mCurrent.i.i9.phi.trans.insert, align 8
  %.pre50 = ptrtoint ptr %.pre48 to i64
  %.pre51 = ptrtoint ptr %.pre49 to i64
  %.pre52 = sub i64 %.pre50, %.pre51
  br label %if.end

if.end:                                           ; preds = %if.then12, %sw.epilog
  %sub.ptr.sub.i.i12.pre-phi = phi i64 [ %.pre52, %if.then12 ], [ %sub.ptr.sub.i.i20, %sw.epilog ]
  %16 = phi ptr [ %.pre49, %if.then12 ], [ %15, %sw.epilog ]
  %17 = phi ptr [ %.pre, %if.then12 ], [ %13, %sw.epilog ]
  %id.1 = phi i16 [ %call13, %if.then12 ], [ %id.044, %sw.epilog ]
  %conv2.i.i13 = and i64 %sub.ptr.sub.i.i12.pre-phi, 4294967295
  %cmp.i14 = icmp eq i64 %conv2.i.i13, 0
  br i1 %cmp.i14, label %if.end17, label %land.rhs, !llvm.loop !8

if.then15:                                        ; preds = %land.rhs
  %mCurrent.i.i9.le = getelementptr inbounds i8, ptr %12, i64 24
  %add.ptr.i.i = getelementptr inbounds i8, ptr %11, i64 -6
  store ptr %add.ptr.i.i, ptr %mCurrent.i.i9.le, align 8
  %mLimit.i.i = getelementptr inbounds i8, ptr %12, i64 40
  %18 = load ptr, ptr %mLimit.i.i, align 8
  %cmp.i.i = icmp ugt ptr %add.ptr.i.i, %18
  br i1 %cmp.i.i, label %if.then.i.i, label %if.end17

if.then.i.i:                                      ; preds = %if.then15
  %exception.i.i = tail call ptr @__cxa_allocate_exception(i64 16) #19
  invoke void @_ZN17DeadlyImportErrorC2EPKc(ptr noundef nonnull align 8 dereferenceable(16) %exception.i.i, ptr noundef nonnull @.str.68)
          to label %invoke.cont.i.i unwind label %lpad.i.i

invoke.cont.i.i:                                  ; preds = %if.then.i.i
  tail call void @__cxa_throw(ptr nonnull %exception.i.i, ptr nonnull @_ZTI17DeadlyImportError, ptr nonnull @_ZN17DeadlyImportErrorD2Ev) #20
  unreachable

lpad.i.i:                                         ; preds = %if.then.i.i
  %19 = landingpad { ptr, i32 }
          cleanup
  br label %common.resume

if.end17:                                         ; preds = %if.end, %if.then, %if.then15, %_ZN6Assimp4Ogre20OgreBinarySerializer4ReadIjEET_v.exit
  ret void
}